target datalayout = "e-m:e-p270:32:32-p271:32:32-p272:64:64-i64:64-i128:128-f80:128-n8:16:32:64-S128"
target triple = "x86_64-pc-linux-gnu"

%struct.timeval = type { i64, i64 }

@trace_events_enabled_count = external global i32, align 4
@message_with_timestamp = external global i8, align 1
@qemu_loglevel = external global i32, align 4
@_TRACE_VFIO_PCI_EMULATED_SUB_VENDOR_ID_DSTATE = external global i16, align 2
@.str.160 = private unnamed_addr constant [56 x i8] c"%d@%zu.%06zu:vfio_pci_emulated_sub_vendor_id %s 0x%04x\0A\00", align 1
@.str.161 = private unnamed_addr constant [43 x i8] c"vfio_pci_emulated_sub_vendor_id %s 0x%04x\0A\00", align 1

; Function Attrs: inlinehint nounwind sspstrong uwtable
define internal zeroext i1 @qemu_loglevel_mask(i32 noundef %0) #3 {
  %2 = alloca i32, align 4
  store i32 %0, ptr %2, align 4
  %3 = load i32, ptr @qemu_loglevel, align 4
  %4 = load i32, ptr %2, align 4
  %5 = and i32 %3, %4
  %6 = icmp ne i32 %5, 0
  ret i1 %6
}

; Function Attrs: inlinehint nounwind sspstrong uwtable
define internal void @_nocheck__trace_vfio_pci_emulated_sub_vendor_id(ptr noundef %0, i16 noundef zeroext %1) #3 {
  %3 = alloca ptr, align 8
  %4 = alloca i16, align 2
  %5 = alloca %struct.timeval, align 8
  store ptr %0, ptr %3, align 8
  store i16 %1, ptr %4, align 2
  %6 = load i32, ptr @trace_events_enabled_count, align 4
  %7 = icmp ne i32 %6, 0
  %8 = xor i1 %7, true
  %9 = xor i1 %8, true
  %10 = zext i1 %9 to i32
  %11 = sext i32 %10 to i64
  %12 = call i64 @llvm.expect.i64(i64 %11, i64 0)
  %13 = icmp ne i64 %12, 0
  br i1 %13, label %14, label %38

14:                                               ; preds = %2
  %15 = load i16, ptr @_TRACE_VFIO_PCI_EMULATED_SUB_VENDOR_ID_DSTATE, align 2
  %16 = zext i16 %15 to i32
  %17 = icmp ne i32 %16, 0
  br i1 %17, label %18, label %38

18:                                               ; preds = %14
  %19 = call zeroext i1 @qemu_loglevel_mask(i32 noundef 32768)
  br i1 %19, label %20, label %38

20:                                               ; preds = %18
  %21 = load i8, ptr @message_with_timestamp, align 1, !range !9, !noundef !10
  %22 = trunc i8 %21 to i1
  br i1 %22, label %23, label %33

23:                                               ; preds = %20
  call void @llvm.lifetime.start.p0(i64 16, ptr %5) #19
  call void @llvm.memset.p0.i64(ptr align 8 %5, i8 0, i64 16, i1 false), !annotation !4
  %24 = call i32 @gettimeofday(ptr noundef %5, ptr noundef null) #19
  %25 = call i32 @qemu_get_thread_id()
  %26 = getelementptr inbounds nuw %struct.timeval, ptr %5, i32 0, i32 0
  %27 = load i64, ptr %26, align 8
  %28 = getelementptr inbounds nuw %struct.timeval, ptr %5, i32 0, i32 1
  %29 = load i64, ptr %28, align 8
  %30 = load ptr, ptr %3, align 8
  %31 = load i16, ptr %4, align 2
  %32 = zext i16 %31 to i32
  call void (ptr, ...) @qemu_log(ptr noundef @.str.160, i32 noundef %25, i64 noundef %27, i64 noundef %29, ptr noundef %30, i32 noundef %32)
  call void @llvm.lifetime.end.p0(i64 16, ptr %5) #19
  br label %37

33:                                               ; preds = %20
  %34 = load ptr, ptr %3, align 8
  %35 = load i16, ptr %4, align 2
  %36 = zext i16 %35 to i32
  call void (ptr, ...) @qemu_log(ptr noundef @.str.161, ptr noundef %34, i32 noundef %36)
  br label %37

37:                                               ; preds = %33, %23
  br label %38

38:                                               ; preds = %37, %18, %14, %2
  ret void
}

; Function Attrs: inlinehint nounwind sspstrong uwtable
define internal void @trace_vfio_pci_emulated_sub_vendor_id(ptr noundef %0, i16 noundef zeroext %1) #3 {
  %3 = alloca ptr, align 8
  %4 = alloca i16, align 2
  store ptr %0, ptr %3, align 8
  store i16 %1, ptr %4, align 2
  %5 = load ptr, ptr %3, align 8
  %6 = load i16, ptr %4, align 2
  call void @_nocheck__trace_vfio_pci_emulated_sub_vendor_id(ptr noundef %5, i16 noundef zeroext %6)
  ret void
}